; Function Attrs: nounwind uwtable
define noundef i64 @Java_sun_nio_fs_UnixNativeDispatcher_opendir0(ptr noundef %0, ptr nocapture noundef readnone %1, i64 noundef %2) local_unnamed_addr #0 {
  %4 = inttoptr i64 %2 to ptr
  %5 = tail call ptr @opendir(ptr noundef %4)
  %6 = icmp eq ptr %5, null
  br i1 %6, label %7, label %throwUnixException.exit

7:                                                ; preds = %3
  %8 = tail call ptr @__errno_location() #12
  %9 = load i32, ptr %8, align 4
  %10 = tail call ptr (ptr, ptr, ptr, ...) @JNU_NewObjectByName(ptr noundef %0, ptr noundef nonnull @.str.46, ptr noundef nonnull @.str.47, i32 noundef %9) #11
  %.not.i = icmp eq ptr %10, null
  br i1 %.not.i, label %throwUnixException.exit, label %11

11:                                               ; preds = %7
  %12 = load ptr, ptr %0, align 8
  %13 = getelementptr inbounds i8, ptr %12, i64 104
  %14 = load ptr, ptr %13, align 8
  %15 = tail call i32 %14(ptr noundef nonnull %0, ptr noundef nonnull %10) #11
  br label %throwUnixException.exit

throwUnixException.exit:                          ; preds = %11, %7, %3
  %16 = ptrtoint ptr %5 to i64
  ret i64 %16
}